; Function Attrs: mustprogress uwtable
define void @_ZN29AdditionalToolbarWidgetActionC2ERKS_(ptr noundef nonnull align 8 dereferenceable(24) %0, ptr nocapture noundef nonnull readonly align 8 dereferenceable(24) %1) unnamed_addr #0 align 2 personality ptr @__gxx_personality_v0 {
  %3 = alloca { i64, i64 }, align 8
  %4 = alloca { i64, i64 }, align 8
  %5 = alloca %"class.QMetaObject::Connection", align 8
  %6 = getelementptr inbounds i8, ptr %1, i64 8
  %7 = load ptr, ptr %6, align 8
  %8 = getelementptr inbounds i8, ptr %7, i64 16
  %9 = load ptr, ptr %8, align 8
  tail call void @_ZN13QWidgetActionC2EP7QObject(ptr noundef nonnull align 8 dereferenceable(16) %0, ptr noundef %9)
  store ptr getelementptr inbounds ({ [16 x ptr] }, ptr @_ZTV29AdditionalToolbarWidgetAction, i64 0, i32 0, i64 2), ptr %0, align 8
  %10 = getelementptr inbounds i8, ptr %0, i64 16
  %11 = getelementptr inbounds i8, ptr %1, i64 16
  %12 = load ptr, ptr %11, align 8
  store ptr %12, ptr %10, align 8
  %13 = load ptr, ptr @mainApp, align 8
  call void @llvm.lifetime.start.p0(i64 16, ptr nonnull %3)
  call void @llvm.lifetime.start.p0(i64 16, ptr nonnull %4)
  store i64 ptrtoint (ptr @_ZN15MainApplication13captureActiveEi to i64), ptr %3, align 8, !noalias !9
  %.fca.1.gep14.i = getelementptr inbounds i8, ptr %3, i64 8
  store i64 0, ptr %.fca.1.gep14.i, align 8, !noalias !9
  store i64 ptrtoint (ptr @_ZN29AdditionalToolbarWidgetAction13captureActiveEi to i64), ptr %4, align 8, !noalias !9
  %.fca.1.gep.i = getelementptr inbounds i8, ptr %4, i64 8
  store i64 0, ptr %.fca.1.gep.i, align 8, !noalias !9
  %14 = invoke noalias noundef nonnull dereferenceable(32) ptr @_Znwm(i64 noundef 32) #18
          to label %.noexc unwind label %18

.noexc:                                           ; preds = %2
  store i32 1, ptr %14, align 4, !noalias !9
  %15 = getelementptr inbounds i8, ptr %14, i64 8
  store ptr @_ZN9QtPrivate11QSlotObjectIM29AdditionalToolbarWidgetActionFviENS_4ListIJiEEEvE4implEiPNS_15QSlotObjectBaseEP7QObjectPPvPb, ptr %15, align 8, !noalias !9
  %16 = getelementptr inbounds i8, ptr %14, i64 16
  store i64 ptrtoint (ptr @_ZN29AdditionalToolbarWidgetAction13captureActiveEi to i64), ptr %16, align 8, !noalias !9
  %.repack7.i.i = getelementptr inbounds i8, ptr %14, i64 24
  store i64 0, ptr %.repack7.i.i, align 8, !noalias !9
  invoke void @_ZN7QObject11connectImplEPKS_PPvS1_S3_PN9QtPrivate15QSlotObjectBaseEN2Qt14ConnectionTypeEPKiPK11QMetaObject(ptr dead_on_unwind nonnull writable sret(%"class.QMetaObject::Connection") align 8 %5, ptr noundef %13, ptr noundef nonnull %3, ptr noundef nonnull %0, ptr noundef nonnull %4, ptr noundef nonnull %14, i32 noundef 0, ptr noundef null, ptr noundef nonnull @_ZN15MainApplication16staticMetaObjectE)
          to label %17 unwind label %18

17:                                               ; preds = %.noexc
  call void @llvm.lifetime.end.p0(i64 16, ptr nonnull %3)
  call void @llvm.lifetime.end.p0(i64 16, ptr nonnull %4)
  call void @_ZN11QMetaObject10ConnectionD1Ev(ptr noundef nonnull align 8 dereferenceable(8) %5) #16
  ret void

18:                                               ; preds = %.noexc, %2
  %19 = landingpad { ptr, i32 }
          cleanup
  call void @_ZN13QWidgetActionD2Ev(ptr noundef nonnull align 8 dereferenceable(16) %0) #16
  resume { ptr, i32 } %19
}